(iCrypto.PublicKey.RSA
_RSAobj
p0
(dp2
S'e'
p3
L65537L
sS'd'
p4
L54404080607678986925747081215393988194833105244799980326193064675528191396599048435408623568391165684540372190869895635650485849930443827962764714217055986081113482592201448055389764536125643901007731454911372851086642867380326848977525608313554817297332177119638144643029299718943800535529225580137872772713L
sS'n'
p5
L145452626393564955988768672198966907531708775687531363384233463045734552260388848256491451996966989983589212755396742555934642481413596750834076248343458522167103825939238112608561905687764003964495221693306044630848034112442386260264046403328082152114950373737927319470872934276695332674672072461108734076099L
sS'q'
p6
L13295438989450345466642222423556898153891286994397352401986727979780053741931416603330186905344745457106009827953252968480031050671089455103296482666844269L
sS'p'
p7
L10940039400653005308585925864931662720128267024817247378925209055531772461866421787470316331131148089975928249283181547777556523792834065381972299719257071L
sS'u'
p8
L2115946280823456249535970208553843961997398272866631090590364142951313549223094601041389321929053220062162823723250093848985528579769241681366943989686144L
sb.